target datalayout = "e-m:e-p270:32:32-p271:32:32-p272:64:64-i64:64-i128:128-f80:128-n8:16:32:64-S128"
target triple = "x86_64-pc-linux-gnu"

%struct.mbedtls_chacha20_context = type { [16 x i32], [64 x i8], i64 }

; Function Attrs: alwaysinline nounwind uwtable
define internal i32 @mbedtls_get_unaligned_uint32(ptr noundef %0) #2 {
  %2 = alloca ptr, align 8
  %3 = alloca i32, align 4
  store ptr %0, ptr %2, align 8, !tbaa !15
  call void @llvm.lifetime.start.p0(i64 4, ptr %3) #7
  %4 = load ptr, ptr %2, align 8, !tbaa !15
  call void @llvm.memcpy.p0.p0.i64(ptr align 4 %3, ptr align 1 %4, i64 4, i1 false)
  %5 = load i32, ptr %3, align 4, !tbaa !13
  call void @llvm.lifetime.end.p0(i64 4, ptr %3) #7
  ret i32 %5
}

; Function Attrs: nounwind uwtable
define hidden i32 @mbedtls_chacha20_setkey(ptr noundef %0, ptr noundef %1) #0 {
  %3 = alloca ptr, align 8
  %4 = alloca ptr, align 8
  store ptr %0, ptr %3, align 8, !tbaa !3
  store ptr %1, ptr %4, align 8, !tbaa !11
  %5 = load ptr, ptr %3, align 8, !tbaa !3
  %6 = getelementptr inbounds nuw %struct.mbedtls_chacha20_context, ptr %5, i32 0, i32 0
  %7 = getelementptr inbounds [16 x i32], ptr %6, i64 0, i64 0
  store i32 1634760805, ptr %7, align 8, !tbaa !13
  %8 = load ptr, ptr %3, align 8, !tbaa !3
  %9 = getelementptr inbounds nuw %struct.mbedtls_chacha20_context, ptr %8, i32 0, i32 0
  %10 = getelementptr inbounds [16 x i32], ptr %9, i64 0, i64 1
  store i32 857760878, ptr %10, align 4, !tbaa !13
  %11 = load ptr, ptr %3, align 8, !tbaa !3
  %12 = getelementptr inbounds nuw %struct.mbedtls_chacha20_context, ptr %11, i32 0, i32 0
  %13 = getelementptr inbounds [16 x i32], ptr %12, i64 0, i64 2
  store i32 2036477234, ptr %13, align 8, !tbaa !13
  %14 = load ptr, ptr %3, align 8, !tbaa !3
  %15 = getelementptr inbounds nuw %struct.mbedtls_chacha20_context, ptr %14, i32 0, i32 0
  %16 = getelementptr inbounds [16 x i32], ptr %15, i64 0, i64 3
  store i32 1797285236, ptr %16, align 4, !tbaa !13
  %17 = load ptr, ptr %4, align 8, !tbaa !11
  %18 = getelementptr inbounds i8, ptr %17, i64 0
  %19 = call i32 @mbedtls_get_unaligned_uint32(ptr noundef %18)
  %20 = load ptr, ptr %3, align 8, !tbaa !3
  %21 = getelementptr inbounds nuw %struct.mbedtls_chacha20_context, ptr %20, i32 0, i32 0
  %22 = getelementptr inbounds [16 x i32], ptr %21, i64 0, i64 4
  store i32 %19, ptr %22, align 8, !tbaa !13
  %23 = load ptr, ptr %4, align 8, !tbaa !11
  %24 = getelementptr inbounds i8, ptr %23, i64 4
  %25 = call i32 @mbedtls_get_unaligned_uint32(ptr noundef %24)
  %26 = load ptr, ptr %3, align 8, !tbaa !3
  %27 = getelementptr inbounds nuw %struct.mbedtls_chacha20_context, ptr %26, i32 0, i32 0
  %28 = getelementptr inbounds [16 x i32], ptr %27, i64 0, i64 5
  store i32 %25, ptr %28, align 4, !tbaa !13
  %29 = load ptr, ptr %4, align 8, !tbaa !11
  %30 = getelementptr inbounds i8, ptr %29, i64 8
  %31 = call i32 @mbedtls_get_unaligned_uint32(ptr noundef %30)
  %32 = load ptr, ptr %3, align 8, !tbaa !3
  %33 = getelementptr inbounds nuw %struct.mbedtls_chacha20_context, ptr %32, i32 0, i32 0
  %34 = getelementptr inbounds [16 x i32], ptr %33, i64 0, i64 6
  store i32 %31, ptr %34, align 8, !tbaa !13
  %35 = load ptr, ptr %4, align 8, !tbaa !11
  %36 = getelementptr inbounds i8, ptr %35, i64 12
  %37 = call i32 @mbedtls_get_unaligned_uint32(ptr noundef %36)
  %38 = load ptr, ptr %3, align 8, !tbaa !3
  %39 = getelementptr inbounds nuw %struct.mbedtls_chacha20_context, ptr %38, i32 0, i32 0
  %40 = getelementptr inbounds [16 x i32], ptr %39, i64 0, i64 7
  store i32 %37, ptr %40, align 4, !tbaa !13
  %41 = load ptr, ptr %4, align 8, !tbaa !11
  %42 = getelementptr inbounds i8, ptr %41, i64 16
  %43 = call i32 @mbedtls_get_unaligned_uint32(ptr noundef %42)
  %44 = load ptr, ptr %3, align 8, !tbaa !3
  %45 = getelementptr inbounds nuw %struct.mbedtls_chacha20_context, ptr %44, i32 0, i32 0
  %46 = getelementptr inbounds [16 x i32], ptr %45, i64 0, i64 8
  store i32 %43, ptr %46, align 8, !tbaa !13
  %47 = load ptr, ptr %4, align 8, !tbaa !11
  %48 = getelementptr inbounds i8, ptr %47, i64 20
  %49 = call i32 @mbedtls_get_unaligned_uint32(ptr noundef %48)
  %50 = load ptr, ptr %3, align 8, !tbaa !3
  %51 = getelementptr inbounds nuw %struct.mbedtls_chacha20_context, ptr %50, i32 0, i32 0
  %52 = getelementptr inbounds [16 x i32], ptr %51, i64 0, i64 9
  store i32 %49, ptr %52, align 4, !tbaa !13
  %53 = load ptr, ptr %4, align 8, !tbaa !11
  %54 = getelementptr inbounds i8, ptr %53, i64 24
  %55 = call i32 @mbedtls_get_unaligned_uint32(ptr noundef %54)
  %56 = load ptr, ptr %3, align 8, !tbaa !3
  %57 = getelementptr inbounds nuw %struct.mbedtls_chacha20_context, ptr %56, i32 0, i32 0
  %58 = getelementptr inbounds [16 x i32], ptr %57, i64 0, i64 10
  store i32 %55, ptr %58, align 8, !tbaa !13
  %59 = load ptr, ptr %4, align 8, !tbaa !11
  %60 = getelementptr inbounds i8, ptr %59, i64 28
  %61 = call i32 @mbedtls_get_unaligned_uint32(ptr noundef %60)
  %62 = load ptr, ptr %3, align 8, !tbaa !3
  %63 = getelementptr inbounds nuw %struct.mbedtls_chacha20_context, ptr %62, i32 0, i32 0
  %64 = getelementptr inbounds [16 x i32], ptr %63, i64 0, i64 11
  store i32 %61, ptr %64, align 4, !tbaa !13
  ret i32 0
}