; Function Attrs: mustprogress nofree norecurse nosync nounwind willreturn memory(argmem: readwrite) uwtable
define hidden noundef i32 @mbedtls_chacha20_setkey(ptr noundef writeonly captures(none) initializes((0, 48)) %0, ptr noundef readonly captures(none) %1) local_unnamed_addr #2 {
  store i32 1634760805, ptr %0, align 8, !tbaa !8
  %3 = getelementptr inbounds nuw i8, ptr %0, i64 4
  store i32 857760878, ptr %3, align 4, !tbaa !8
  %4 = getelementptr inbounds nuw i8, ptr %0, i64 8
  store i32 2036477234, ptr %4, align 8, !tbaa !8
  %5 = getelementptr inbounds nuw i8, ptr %0, i64 12
  store i32 1797285236, ptr %5, align 4, !tbaa !8
  %.0.copyload.i = load i32, ptr %1, align 1
  %6 = getelementptr inbounds nuw i8, ptr %0, i64 16
  store i32 %.0.copyload.i, ptr %6, align 8, !tbaa !8
  %7 = getelementptr inbounds nuw i8, ptr %1, i64 4
  %.0.copyload.i20 = load i32, ptr %7, align 1
  %8 = getelementptr inbounds nuw i8, ptr %0, i64 20
  store i32 %.0.copyload.i20, ptr %8, align 4, !tbaa !8
  %9 = getelementptr inbounds nuw i8, ptr %1, i64 8
  %.0.copyload.i21 = load i32, ptr %9, align 1
  %10 = getelementptr inbounds nuw i8, ptr %0, i64 24
  store i32 %.0.copyload.i21, ptr %10, align 8, !tbaa !8
  %11 = getelementptr inbounds nuw i8, ptr %1, i64 12
  %.0.copyload.i22 = load i32, ptr %11, align 1
  %12 = getelementptr inbounds nuw i8, ptr %0, i64 28
  store i32 %.0.copyload.i22, ptr %12, align 4, !tbaa !8
  %13 = getelementptr inbounds nuw i8, ptr %1, i64 16
  %.0.copyload.i23 = load i32, ptr %13, align 1
  %14 = getelementptr inbounds nuw i8, ptr %0, i64 32
  store i32 %.0.copyload.i23, ptr %14, align 8, !tbaa !8
  %15 = getelementptr inbounds nuw i8, ptr %1, i64 20
  %.0.copyload.i24 = load i32, ptr %15, align 1
  %16 = getelementptr inbounds nuw i8, ptr %0, i64 36
  store i32 %.0.copyload.i24, ptr %16, align 4, !tbaa !8
  %17 = getelementptr inbounds nuw i8, ptr %1, i64 24
  %.0.copyload.i25 = load i32, ptr %17, align 1
  %18 = getelementptr inbounds nuw i8, ptr %0, i64 40
  store i32 %.0.copyload.i25, ptr %18, align 8, !tbaa !8
  %19 = getelementptr inbounds nuw i8, ptr %1, i64 28
  %.0.copyload.i26 = load i32, ptr %19, align 1
  %20 = getelementptr inbounds nuw i8, ptr %0, i64 44
  store i32 %.0.copyload.i26, ptr %20, align 4, !tbaa !8
  ret i32 0
}